; Function Attrs: null_pointer_is_valid sspstrong uwtable
define range(i32 -6, 1) i32 @wtap_block_add_custom_option(ptr noundef readonly captures(address_is_null) %0, i32 noundef %1, i32 noundef %2, ptr noundef %3, i64 noundef %4) local_unnamed_addr #0 {
  %6 = icmp eq ptr %0, null
  br i1 %6, label %wtap_block_add_option_common.exit.thread, label %7

7:                                                ; preds = %5
  %8 = load ptr, ptr %0, align 8
  %9 = getelementptr inbounds nuw i8, ptr %8, i64 48
  %10 = load ptr, ptr %9, align 8
  %11 = zext i32 %1 to i64
  %12 = inttoptr i64 %11 to ptr
  %13 = tail call ptr @g_hash_table_lookup(ptr noundef %10, ptr noundef %12)
  %14 = icmp eq ptr %13, null
  br i1 %14, label %wtap_block_add_option_common.exit.thread, label %15

15:                                               ; preds = %7
  %16 = getelementptr inbounds nuw i8, ptr %13, i64 16
  %17 = load i32, ptr %16, align 8
  %.not.i = icmp eq i32 %17, 7
  br i1 %.not.i, label %18, label %wtap_block_add_option_common.exit.thread

18:                                               ; preds = %15
  %19 = getelementptr inbounds nuw i8, ptr %13, i64 20
  %20 = load i32, ptr %19, align 4
  %21 = and i32 %20, 1
  %.not20.i = icmp eq i32 %21, 0
  %22 = getelementptr inbounds nuw i8, ptr %0, i64 16
  %23 = load ptr, ptr %22, align 8
  %24 = getelementptr inbounds nuw i8, ptr %23, i64 8
  %25 = load i32, ptr %24, align 8
  br i1 %.not20.i, label %26, label %.loopexit

26:                                               ; preds = %18
  %.not.i.i = icmp eq i32 %25, 0
  br i1 %.not.i.i, label %.loopexit, label %.lr.ph.i.i

.lr.ph.i.i:                                       ; preds = %26
  %27 = load ptr, ptr %23, align 8
  %wide.trip.count.i.i = zext i32 %25 to i64
  br label %29

28:                                               ; preds = %29
  %indvars.iv.next.i.i = add nuw nsw i64 %indvars.iv.i.i, 1
  %exitcond.not.i.i = icmp eq i64 %indvars.iv.next.i.i, %wide.trip.count.i.i
  br i1 %exitcond.not.i.i, label %.loopexit, label %29, !llvm.loop !11

29:                                               ; preds = %28, %.lr.ph.i.i
  %indvars.iv.i.i = phi i64 [ 0, %.lr.ph.i.i ], [ %indvars.iv.next.i.i, %28 ]
  %30 = getelementptr %struct.wtap_option_t, ptr %27, i64 %indvars.iv.i.i
  %31 = load i32, ptr %30, align 8
  %32 = icmp eq i32 %31, %1
  br i1 %32, label %wtap_block_add_option_common.exit.thread, label %28

.loopexit:                                        ; preds = %28, %26, %18
  %33 = phi i32 [ 0, %26 ], [ %25, %18 ], [ %25, %28 ]
  %34 = add i32 %33, 1
  %35 = tail call ptr @g_array_set_size(ptr noundef %23, i32 noundef %34)
  %36 = load ptr, ptr %22, align 8
  %37 = load ptr, ptr %36, align 8
  %38 = zext i32 %33 to i64
  %39 = getelementptr %struct.wtap_option_t, ptr %37, i64 %38
  store i32 %1, ptr %39, align 8
  %40 = getelementptr inbounds nuw i8, ptr %39, i64 8
  store i32 %2, ptr %40, align 8
  %41 = getelementptr inbounds nuw i8, ptr %39, i64 16
  store i64 %4, ptr %41, align 8
  %42 = tail call ptr @g_memdup2(ptr noundef %3, i64 noundef %4) #18
  %43 = getelementptr inbounds nuw i8, ptr %39, i64 24
  store ptr %42, ptr %43, align 8
  br label %wtap_block_add_option_common.exit.thread

wtap_block_add_option_common.exit.thread:         ; preds = %29, %15, %7, %5, %.loopexit
  %.0 = phi i32 [ 0, %.loopexit ], [ -3, %15 ], [ -1, %7 ], [ -6, %5 ], [ -5, %29 ]
  ret i32 %.0
}